; Function Attrs: nounwind uwtable
define internal i32 @filter_traverse(ptr noundef readonly captures(none) %0, ptr noundef readonly captures(none) %1, ptr noundef %2) #0 {
  %4 = getelementptr inbounds nuw i8, ptr %0, i64 24
  %5 = load ptr, ptr %4, align 8, !tbaa !34
  %.not = icmp eq ptr %5, null
  br i1 %.not, label %8, label %6

6:                                                ; preds = %3
  %7 = tail call i32 %1(ptr noundef nonnull %5, ptr noundef %2) #9
  %.not20 = icmp eq i32 %7, 0
  br i1 %.not20, label %8, label %14

8:                                                ; preds = %3, %6
  %9 = getelementptr inbounds nuw i8, ptr %0, i64 16
  %10 = load ptr, ptr %9, align 8, !tbaa !31
  %.not21 = icmp eq ptr %10, null
  br i1 %.not21, label %13, label %11

11:                                               ; preds = %8
  %12 = tail call i32 %1(ptr noundef nonnull %10, ptr noundef %2) #9
  %.not22 = icmp eq i32 %12, 0
  br i1 %.not22, label %13, label %14

13:                                               ; preds = %11, %8
  br label %14

14:                                               ; preds = %6, %11, %13
  %.1 = phi i32 [ 0, %13 ], [ %12, %11 ], [ %7, %6 ]
  ret i32 %.1
}